ARM GAS  C:\Users\JJ\AppData\Local\Temp\cc2QI04s.s 			page 1


   1              		.syntax unified
   2              		.cpu cortex-m3
   3              		.fpu softvfp
   4              		.eabi_attribute 20, 1
   5              		.eabi_attribute 21, 1
   6              		.eabi_attribute 23, 3
   7              		.eabi_attribute 24, 1
   8              		.eabi_attribute 25, 1
   9              		.eabi_attribute 26, 1
  10              		.eabi_attribute 30, 1
  11              		.eabi_attribute 34, 1
  12              		.eabi_attribute 18, 4
  13              		.thumb
  14              		.syntax unified
  15              		.file	"main.c"
  16              		.text
  17              	.Ltext0:
  18              		.cfi_sections	.debug_frame
  19              		.section	.text.turn,"ax",%progbits
  20              		.align	2
  21              		.global	turn
  22              		.thumb
  23              		.thumb_func
  24              		.type	turn, %function
  25              	turn:
  26              	.LFB63:
  27              		.file 1 "main.c"
   1:main.c        **** #include "project.h"
   2:main.c        **** 
   3:main.c        **** int step_delay = 1000; //uS
   4:main.c        **** int delay = 10; //ms
   5:main.c        **** int turn_delay = 6; //ms
   6:main.c        **** int fullsteps = 200; //200 steps in full revolution
   7:main.c        **** int speed = 1;
   8:main.c        **** 
   9:main.c        **** void turn(int face, int clockwise, int steps){  
  28              		.loc 1 9 0
  29              		.cfi_startproc
  30              		@ args = 0, pretend = 0, frame = 0
  31              		@ frame_needed = 0, uses_anonymous_args = 0
  32              	.LVL0:
  33 0000 F8B5     		push	{r3, r4, r5, r6, r7, lr}
  34              		.cfi_def_cfa_offset 24
  35              		.cfi_offset 3, -24
  36              		.cfi_offset 4, -20
  37              		.cfi_offset 5, -16
  38              		.cfi_offset 6, -12
  39              		.cfi_offset 7, -8
  40              		.cfi_offset 14, -4
  41 0002 0C46     		mov	r4, r1
  42 0004 1646     		mov	r6, r2
  10:main.c        **** 
  11:main.c        ****     // set face to LOW state to enable the motor
  12:main.c        ****     if (face == 0){
  43              		.loc 1 12 0
  44 0006 0746     		mov	r7, r0
  45 0008 10B9     		cbnz	r0, .L2
ARM GAS  C:\Users\JJ\AppData\Local\Temp\cc2QI04s.s 			page 2


  13:main.c        ****         Enable_1_Write(0); 
  46              		.loc 1 13 0
  47 000a FFF7FEFF 		bl	Enable_1_Write
  48              	.LVL1:
  49 000e 16E0     		b	.L3
  50              	.LVL2:
  51              	.L2:
  14:main.c        ****     }else if (face == 1){
  52              		.loc 1 14 0
  53 0010 0128     		cmp	r0, #1
  54 0012 03D1     		bne	.L4
  15:main.c        ****         Enable_2_Write(0); 
  55              		.loc 1 15 0
  56 0014 0020     		movs	r0, #0
  57              	.LVL3:
  58 0016 FFF7FEFF 		bl	Enable_2_Write
  59              	.LVL4:
  60 001a 10E0     		b	.L3
  61              	.LVL5:
  62              	.L4:
  16:main.c        ****     }else if (face == 2){
  63              		.loc 1 16 0
  64 001c 0228     		cmp	r0, #2
  65 001e 03D1     		bne	.L5
  17:main.c        ****         Enable_3_Write(0);         
  66              		.loc 1 17 0
  67 0020 0020     		movs	r0, #0
  68              	.LVL6:
  69 0022 FFF7FEFF 		bl	Enable_3_Write
  70              	.LVL7:
  71 0026 0AE0     		b	.L3
  72              	.LVL8:
  73              	.L5:
  18:main.c        ****     }else if (face == 3){
  74              		.loc 1 18 0
  75 0028 0328     		cmp	r0, #3
  76 002a 03D1     		bne	.L6
  19:main.c        ****         Enable_4_Write(0);         
  77              		.loc 1 19 0
  78 002c 0020     		movs	r0, #0
  79              	.LVL9:
  80 002e FFF7FEFF 		bl	Enable_4_Write
  81              	.LVL10:
  82 0032 04E0     		b	.L3
  83              	.LVL11:
  84              	.L6:
  20:main.c        ****     }else if (face == 4){
  85              		.loc 1 20 0
  86 0034 0428     		cmp	r0, #4
  87 0036 02D1     		bne	.L3
  21:main.c        ****         Enable_5_Write(0);         
  88              		.loc 1 21 0
  89 0038 0020     		movs	r0, #0
  90              	.LVL12:
  91 003a FFF7FEFF 		bl	Enable_5_Write
  92              	.LVL13:
  93              	.L3:
ARM GAS  C:\Users\JJ\AppData\Local\Temp\cc2QI04s.s 			page 3


  22:main.c        ****     }
  23:main.c        ****     CyDelay(delay);
  94              		.loc 1 23 0
  95 003e 234B     		ldr	r3, .L17
  96 0040 1868     		ldr	r0, [r3]
  97 0042 FFF7FEFF 		bl	CyDelay
  98              	.LVL14:
  24:main.c        ****     
  25:main.c        ****     // setting direction
  26:main.c        ****     if (clockwise){
  99              		.loc 1 26 0
 100 0046 24B1     		cbz	r4, .L7
  27:main.c        ****         Direction_Write(1); // HIGH for clockwise
 101              		.loc 1 27 0
 102 0048 0120     		movs	r0, #1
 103 004a FFF7FEFF 		bl	Direction_Write
 104              	.LVL15:
 105              	.L9:
   9:main.c        **** 
 106              		.loc 1 9 0 discriminator 1
 107 004e 0024     		movs	r4, #0
 108              	.LVL16:
 109 0050 11E0     		b	.L8
 110              	.LVL17:
 111              	.L7:
  28:main.c        ****     }else{
  29:main.c        ****         Direction_Write(0); // LOW for counter clockwise
 112              		.loc 1 29 0
 113 0052 0020     		movs	r0, #0
 114 0054 FFF7FEFF 		bl	Direction_Write
 115              	.LVL18:
 116 0058 F9E7     		b	.L9
 117              	.LVL19:
 118              	.L10:
 119              	.LBB2:
  30:main.c        ****     }
  31:main.c        ****     
  32:main.c        ****     // Step pulse depending on number of steps and current speed
  33:main.c        ****     for (int i=0; i < steps; i++){
  34:main.c        ****         Step_Write(1);
 120              		.loc 1 34 0 discriminator 3
 121 005a 0120     		movs	r0, #1
 122 005c FFF7FEFF 		bl	Step_Write
 123              	.LVL20:
  35:main.c        ****         CyDelayUs(step_delay);
 124              		.loc 1 35 0 discriminator 3
 125 0060 1A4D     		ldr	r5, .L17
 126 0062 A888     		ldrh	r0, [r5, #4]
 127 0064 FFF7FEFF 		bl	CyDelayUs
 128              	.LVL21:
  36:main.c        ****         Step_Write(0);
 129              		.loc 1 36 0 discriminator 3
 130 0068 0020     		movs	r0, #0
 131 006a FFF7FEFF 		bl	Step_Write
 132              	.LVL22:
  37:main.c        ****         CyDelayUs(step_delay);
 133              		.loc 1 37 0 discriminator 3
ARM GAS  C:\Users\JJ\AppData\Local\Temp\cc2QI04s.s 			page 4


 134 006e A888     		ldrh	r0, [r5, #4]
 135 0070 FFF7FEFF 		bl	CyDelayUs
 136              	.LVL23:
  33:main.c        ****         Step_Write(1);
 137              		.loc 1 33 0 discriminator 3
 138 0074 0134     		adds	r4, r4, #1
 139              	.LVL24:
 140              	.L8:
  33:main.c        ****         Step_Write(1);
 141              		.loc 1 33 0 is_stmt 0 discriminator 1
 142 0076 B442     		cmp	r4, r6
 143 0078 EFDB     		blt	.L10
 144              	.LBE2:
  38:main.c        ****     }
  39:main.c        ****     
  40:main.c        ****     // set face to HIGH state to disable the motor
  41:main.c        ****     CyDelay(delay);
 145              		.loc 1 41 0 is_stmt 1
 146 007a 144B     		ldr	r3, .L17
 147 007c 1868     		ldr	r0, [r3]
 148 007e FFF7FEFF 		bl	CyDelay
 149              	.LVL25:
  42:main.c        ****     int sleep = 1;
  43:main.c        ****     if (sleep == 1){
  44:main.c        ****         if (face == 0){
 150              		.loc 1 44 0
 151 0082 1FB9     		cbnz	r7, .L11
  45:main.c        ****             Enable_1_Write(1); 
 152              		.loc 1 45 0
 153 0084 0120     		movs	r0, #1
 154 0086 FFF7FEFF 		bl	Enable_1_Write
 155              	.LVL26:
 156 008a 16E0     		b	.L12
 157              	.L11:
  46:main.c        ****         }else if (face == 1){
 158              		.loc 1 46 0
 159 008c 012F     		cmp	r7, #1
 160 008e 03D1     		bne	.L13
  47:main.c        ****             Enable_2_Write(1); 
 161              		.loc 1 47 0
 162 0090 0120     		movs	r0, #1
 163 0092 FFF7FEFF 		bl	Enable_2_Write
 164              	.LVL27:
 165 0096 10E0     		b	.L12
 166              	.L13:
  48:main.c        ****         }else if (face == 2){
 167              		.loc 1 48 0
 168 0098 022F     		cmp	r7, #2
 169 009a 03D1     		bne	.L14
  49:main.c        ****             Enable_3_Write(1);         
 170              		.loc 1 49 0
 171 009c 0120     		movs	r0, #1
 172 009e FFF7FEFF 		bl	Enable_3_Write
 173              	.LVL28:
 174 00a2 0AE0     		b	.L12
 175              	.L14:
  50:main.c        ****         }else if (face == 3){
ARM GAS  C:\Users\JJ\AppData\Local\Temp\cc2QI04s.s 			page 5


 176              		.loc 1 50 0
 177 00a4 032F     		cmp	r7, #3
 178 00a6 03D1     		bne	.L15
  51:main.c        ****             Enable_4_Write(1);         
 179              		.loc 1 51 0
 180 00a8 0120     		movs	r0, #1
 181 00aa FFF7FEFF 		bl	Enable_4_Write
 182              	.LVL29:
 183 00ae 04E0     		b	.L12
 184              	.L15:
  52:main.c        ****         }else if (face == 4){
 185              		.loc 1 52 0
 186 00b0 042F     		cmp	r7, #4
 187 00b2 02D1     		bne	.L12
  53:main.c        ****             Enable_5_Write(1);         
 188              		.loc 1 53 0
 189 00b4 0120     		movs	r0, #1
 190 00b6 FFF7FEFF 		bl	Enable_5_Write
 191              	.LVL30:
 192              	.L12:
  54:main.c        ****         }
  55:main.c        ****     }
  56:main.c        ****     CyDelay(speed*turn_delay);
 193              		.loc 1 56 0
 194 00ba 044B     		ldr	r3, .L17
 195 00bc 9A68     		ldr	r2, [r3, #8]
 196 00be D868     		ldr	r0, [r3, #12]
 197 00c0 00FB02F0 		mul	r0, r0, r2
 198 00c4 FFF7FEFF 		bl	CyDelay
 199              	.LVL31:
 200 00c8 F8BD     		pop	{r3, r4, r5, r6, r7, pc}
 201              	.LVL32:
 202              	.L18:
 203 00ca 00BF     		.align	2
 204              	.L17:
 205 00cc 00000000 		.word	.LANCHOR0
 206              		.cfi_endproc
 207              	.LFE63:
 208              		.size	turn, .-turn
 209              		.section	.text.main,"ax",%progbits
 210              		.align	2
 211              		.global	main
 212              		.thumb
 213              		.thumb_func
 214              		.type	main, %function
 215              	main:
 216              	.LFB64:
  57:main.c        **** }
  58:main.c        **** 
  59:main.c        **** int main(void)
  60:main.c        **** {
 217              		.loc 1 60 0
 218              		.cfi_startproc
 219              		@ args = 0, pretend = 0, frame = 504
 220              		@ frame_needed = 0, uses_anonymous_args = 0
 221 0000 70B5     		push	{r4, r5, r6, lr}
 222              		.cfi_def_cfa_offset 16
ARM GAS  C:\Users\JJ\AppData\Local\Temp\cc2QI04s.s 			page 6


 223              		.cfi_offset 4, -16
 224              		.cfi_offset 5, -12
 225              		.cfi_offset 6, -8
 226              		.cfi_offset 14, -4
 227 0002 FEB0     		sub	sp, sp, #504
 228              		.cfi_def_cfa_offset 520
  61:main.c        ****     CyGlobalIntEnable; /* Enable global interrupts. */
 229              		.loc 1 61 0
 230              		.syntax unified
 231              	@ 61 "main.c" 1
 232 0004 62B6     		CPSIE   i
 233              	@ 0 "" 2
  62:main.c        **** 
  63:main.c        ****     /* Place your initialization/startup code here (e.g. MyInst_Start()) */
  64:main.c        ****     
  65:main.c        ****     // Initialise enable to be high (off) and direction to be 0
  66:main.c        ****     Direction_Write(0);
 234              		.loc 1 66 0
 235              		.thumb
 236              		.syntax unified
 237 0006 0020     		movs	r0, #0
 238 0008 FFF7FEFF 		bl	Direction_Write
 239              	.LVL33:
  67:main.c        ****     Enable_1_Write(1);
 240              		.loc 1 67 0
 241 000c 0120     		movs	r0, #1
 242 000e FFF7FEFF 		bl	Enable_1_Write
 243              	.LVL34:
  68:main.c        ****     Enable_2_Write(1);
 244              		.loc 1 68 0
 245 0012 0120     		movs	r0, #1
 246 0014 FFF7FEFF 		bl	Enable_2_Write
 247              	.LVL35:
  69:main.c        ****     Enable_3_Write(1);
 248              		.loc 1 69 0
 249 0018 0120     		movs	r0, #1
 250 001a FFF7FEFF 		bl	Enable_3_Write
 251              	.LVL36:
  70:main.c        ****     Enable_4_Write(1);
 252              		.loc 1 70 0
 253 001e 0120     		movs	r0, #1
 254 0020 FFF7FEFF 		bl	Enable_4_Write
 255              	.LVL37:
  71:main.c        ****     Enable_5_Write(1);
 256              		.loc 1 71 0
 257 0024 0120     		movs	r0, #1
 258 0026 FFF7FEFF 		bl	Enable_5_Write
 259              	.LVL38:
  72:main.c        ****     
  73:main.c        ****     char buffer[500];
  74:main.c        ****     uint16_t index = 0;
  75:main.c        ****     char ch; //current character
  76:main.c        ****     char move[3] = ""; //max move length of 2 and null terminator
 260              		.loc 1 76 0
 261 002a AC4B     		ldr	r3, .L60
 262 002c 1B78     		ldrb	r3, [r3]	@ zero_extendqisi2
 263 002e 8DF80030 		strb	r3, [sp]
ARM GAS  C:\Users\JJ\AppData\Local\Temp\cc2QI04s.s 			page 7


 264 0032 0026     		movs	r6, #0
 265 0034 ADF80160 		strh	r6, [sp, #1]	@ unaligned
 266              	.LVL39:
  77:main.c        ****     int moveIndex = 0;
  78:main.c        ****     UART_Start(); // Start UART component
 267              		.loc 1 78 0
 268 0038 FFF7FEFF 		bl	UART_Start
 269              	.LVL40:
  79:main.c        **** 
  80:main.c        ****     UART_PutString("Robot Initialised \r\n");
 270              		.loc 1 80 0
 271 003c A848     		ldr	r0, .L60+4
 272 003e FFF7FEFF 		bl	UART_PutString
 273              	.LVL41:
  77:main.c        ****     int moveIndex = 0;
 274              		.loc 1 77 0
 275 0042 3546     		mov	r5, r6
 276 0044 00E0     		b	.L21
 277              	.LVL42:
 278              	.L57:
  81:main.c        ****     
  82:main.c        ****     for(;;)
  83:main.c        ****     {
  84:main.c        ****         if(UART_GetRxBufferSize() > 0) // Check if there are incoming characters
  85:main.c        ****         {
  86:main.c        ****             ch = UART_GetChar(); // Read incoming character
  87:main.c        **** 
  88:main.c        ****             //process string if return character is found
  89:main.c        ****             if (ch == '\r')
  90:main.c        ****             {
  91:main.c        ****                 for (int i = 0; i < index; i++){  
  92:main.c        ****                     if (buffer[i] == ' '){ //there is a space
  93:main.c        ****                         if(moveIndex > 0){
  94:main.c        ****                             move[moveIndex] = '\0'; // Add null terminator to move string
  95:main.c        ****                             moveIndex = 0; // Reset move index
  96:main.c        ****                             
  97:main.c        ****                             // Do something with the move string
  98:main.c        ****                             if(strcmp(move, "R") == 0){
  99:main.c        ****                                 UART_PutString("R\r\n");
 100:main.c        ****                                 turn(0, 0, fullsteps/4);
 101:main.c        ****                             }else if(strcmp(move, "R'") == 0){
 102:main.c        ****                                 UART_PutString("R'\r\n");
 103:main.c        ****                                 turn(0, 1, fullsteps/4);
 104:main.c        ****                             }else if(strcmp(move, "R2") == 0){
 105:main.c        ****                                 UART_PutString("R2\r\n");
 106:main.c        ****                                 turn(0, 0, fullsteps/2);
 107:main.c        ****                             }else if(strcmp(move, "F") == 0){
 108:main.c        ****                                 UART_PutString("F\r\n");
 109:main.c        ****                                 turn(1, 0, fullsteps/4);
 110:main.c        ****                             }else if(strcmp(move, "F'") == 0){
 111:main.c        ****                                 UART_PutString("F'\r\n");
 112:main.c        ****                                 turn(1, 1, fullsteps/4);
 113:main.c        ****                             }else if(strcmp(move, "F2") == 0){
 114:main.c        ****                                 UART_PutString("F2\r\n");
 115:main.c        ****                                 turn(1, 0, fullsteps/2);
 116:main.c        ****                             }else if(strcmp(move, "D") == 0){
 117:main.c        ****                                 UART_PutString("D\r\n");
ARM GAS  C:\Users\JJ\AppData\Local\Temp\cc2QI04s.s 			page 8


 118:main.c        ****                                 turn(2, 0, fullsteps/4);
 119:main.c        ****                             }else if(strcmp(move, "D'") == 0){
 120:main.c        ****                                 UART_PutString("D'\r\n");
 121:main.c        ****                                 turn(2, 1, fullsteps/4);
 122:main.c        ****                             }else if(strcmp(move, "D2") == 0){
 123:main.c        ****                                 UART_PutString("D2\r\n");
 124:main.c        ****                                 turn(2, 0, fullsteps/2);
 125:main.c        ****                             }else if(strcmp(move, "L") == 0){
 126:main.c        ****                                 UART_PutString("L\r\n");
 127:main.c        ****                                 turn(3, 0, fullsteps/4);
 128:main.c        ****                             }else if(strcmp(move, "L'") == 0){
 129:main.c        ****                                 UART_PutString("L'\r\n");
 130:main.c        ****                                 turn(3, 1, fullsteps/4);
 131:main.c        ****                             }else if(strcmp(move, "L2") == 0){
 132:main.c        ****                                 UART_PutString("L2\r\n");
 133:main.c        ****                                 turn(3, 0, fullsteps/2);
 134:main.c        ****                             }else if(strcmp(move, "B") == 0){
 135:main.c        ****                                 UART_PutString("B\r\n");
 136:main.c        ****                                 turn(4, 0, fullsteps/4);
 137:main.c        ****                             }else if(strcmp(move, "B'") == 0){
 138:main.c        ****                                 UART_PutString("B'\r\n");
 139:main.c        ****                                 turn(4, 1, fullsteps/4);
 140:main.c        ****                             }else if(strcmp(move, "B2") == 0){
 141:main.c        ****                                 UART_PutString("B2\r\n");
 142:main.c        ****                                 turn(4, 0, fullsteps/2);
 143:main.c        ****                             }else if (strcmp(move, "slow") == 0){
 144:main.c        ****                                 UART_PutString("slow\r\n");
 145:main.c        ****                                 speed = 10;
 146:main.c        ****                             }else if (strcmp(move, "fast") == 0){
 147:main.c        ****                                 UART_PutString("fast\r\n");
 148:main.c        ****                                 speed = 1;
 149:main.c        ****                             }
 150:main.c        ****                         }
 151:main.c        ****                     }
 152:main.c        ****                     else{
 153:main.c        ****                         // Add current character to move string
 154:main.c        ****                         move[moveIndex] = buffer[i];
 155:main.c        ****                         moveIndex++;
 156:main.c        ****                     }
 157:main.c        ****                 }
 158:main.c        ****                 index = 0;
 159:main.c        ****                 UART_PutString("Finished\r\n");
 160:main.c        ****             }
 161:main.c        ****             else
 162:main.c        ****             {
 163:main.c        ****                 buffer[index] = ch; // Store incoming character in buffer
 164:main.c        ****                 index++;
 165:main.c        **** 
 166:main.c        ****                 if(index >= 500) // Check if buffer is full
 167:main.c        ****                 {
 168:main.c        ****                     index = 0; // Reset buffer index
 279              		.loc 1 168 0
 280 0046 0026     		movs	r6, #0
 281              	.LVL43:
 282              	.L21:
  84:main.c        ****         {
 283              		.loc 1 84 0
ARM GAS  C:\Users\JJ\AppData\Local\Temp\cc2QI04s.s 			page 9


 284 0048 FFF7FEFF 		bl	UART_GetRxBufferSize
 285              	.LVL44:
 286 004c 0028     		cmp	r0, #0
 287 004e FBD0     		beq	.L21
  86:main.c        **** 
 288              		.loc 1 86 0
 289 0050 FFF7FEFF 		bl	UART_GetChar
 290              	.LVL45:
  89:main.c        ****             {
 291              		.loc 1 89 0
 292 0054 0D28     		cmp	r0, #13
 293 0056 40F0A481 		bne	.L58
 294 005a 99E1     		b	.L55
 295              	.LVL46:
 296              	.L52:
 297              	.LBB3:
  92:main.c        ****                         if(moveIndex > 0){
 298              		.loc 1 92 0
 299 005c 01AB     		add	r3, sp, #4
 300 005e 1B5D     		ldrb	r3, [r3, r4]	@ zero_extendqisi2
 301 0060 202B     		cmp	r3, #32
 302 0062 40F08E81 		bne	.L24
  93:main.c        ****                             move[moveIndex] = '\0'; // Add null terminator to move string
 303              		.loc 1 93 0
 304 0066 002D     		cmp	r5, #0
 305 0068 40F39081 		ble	.L25
  94:main.c        ****                             moveIndex = 0; // Reset move index
 306              		.loc 1 94 0
 307 006c 0023     		movs	r3, #0
 308 006e 0DF80530 		strb	r3, [sp, r5]
 309              	.LVL47:
  98:main.c        ****                                 UART_PutString("R\r\n");
 310              		.loc 1 98 0
 311 0072 9C49     		ldr	r1, .L60+8
 312 0074 6846     		mov	r0, sp
 313 0076 FFF7FEFF 		bl	strcmp
 314              	.LVL48:
 315 007a 70B9     		cbnz	r0, .L26
  99:main.c        ****                                 turn(0, 0, fullsteps/4);
 316              		.loc 1 99 0
 317 007c 9A48     		ldr	r0, .L60+12
 318 007e FFF7FEFF 		bl	UART_PutString
 319              	.LVL49:
 100:main.c        ****                             }else if(strcmp(move, "R'") == 0){
 320              		.loc 1 100 0
 321 0082 9A4B     		ldr	r3, .L60+16
 322 0084 1A69     		ldr	r2, [r3, #16]
 323 0086 002A     		cmp	r2, #0
 324 0088 00DA     		bge	.L27
 325 008a 0332     		adds	r2, r2, #3
 326              	.L27:
 327 008c 9210     		asrs	r2, r2, #2
 328 008e 0021     		movs	r1, #0
 329 0090 0846     		mov	r0, r1
 330 0092 FFF7FEFF 		bl	turn
 331              	.LVL50:
  95:main.c        ****                             
ARM GAS  C:\Users\JJ\AppData\Local\Temp\cc2QI04s.s 			page 10


 332              		.loc 1 95 0
 333 0096 0025     		movs	r5, #0
 334 0098 78E1     		b	.L25
 335              	.L26:
 101:main.c        ****                                 UART_PutString("R'\r\n");
 336              		.loc 1 101 0
 337 009a 9549     		ldr	r1, .L60+20
 338 009c 6846     		mov	r0, sp
 339 009e FFF7FEFF 		bl	strcmp
 340              	.LVL51:
 341 00a2 70B9     		cbnz	r0, .L28
 102:main.c        ****                                 turn(0, 1, fullsteps/4);
 342              		.loc 1 102 0
 343 00a4 9348     		ldr	r0, .L60+24
 344 00a6 FFF7FEFF 		bl	UART_PutString
 345              	.LVL52:
 103:main.c        ****                             }else if(strcmp(move, "R2") == 0){
 346              		.loc 1 103 0
 347 00aa 904B     		ldr	r3, .L60+16
 348 00ac 1A69     		ldr	r2, [r3, #16]
 349 00ae 002A     		cmp	r2, #0
 350 00b0 00DA     		bge	.L29
 351 00b2 0332     		adds	r2, r2, #3
 352              	.L29:
 353 00b4 9210     		asrs	r2, r2, #2
 354 00b6 0121     		movs	r1, #1
 355 00b8 0020     		movs	r0, #0
 356 00ba FFF7FEFF 		bl	turn
 357              	.LVL53:
  95:main.c        ****                             
 358              		.loc 1 95 0
 359 00be 0025     		movs	r5, #0
 360 00c0 64E1     		b	.L25
 361              	.L28:
 104:main.c        ****                                 UART_PutString("R2\r\n");
 362              		.loc 1 104 0
 363 00c2 8D49     		ldr	r1, .L60+28
 364 00c4 6846     		mov	r0, sp
 365 00c6 FFF7FEFF 		bl	strcmp
 366              	.LVL54:
 367 00ca 68B9     		cbnz	r0, .L30
 105:main.c        ****                                 turn(0, 0, fullsteps/2);
 368              		.loc 1 105 0
 369 00cc 8B48     		ldr	r0, .L60+32
 370 00ce FFF7FEFF 		bl	UART_PutString
 371              	.LVL55:
 106:main.c        ****                             }else if(strcmp(move, "F") == 0){
 372              		.loc 1 106 0
 373 00d2 864B     		ldr	r3, .L60+16
 374 00d4 1A69     		ldr	r2, [r3, #16]
 375 00d6 02EBD272 		add	r2, r2, r2, lsr #31
 376 00da 5210     		asrs	r2, r2, #1
 377 00dc 0021     		movs	r1, #0
 378 00de 0846     		mov	r0, r1
 379 00e0 FFF7FEFF 		bl	turn
 380              	.LVL56:
  95:main.c        ****                             
ARM GAS  C:\Users\JJ\AppData\Local\Temp\cc2QI04s.s 			page 11


 381              		.loc 1 95 0
 382 00e4 0025     		movs	r5, #0
 383 00e6 51E1     		b	.L25
 384              	.L30:
 107:main.c        ****                                 UART_PutString("F\r\n");
 385              		.loc 1 107 0
 386 00e8 8549     		ldr	r1, .L60+36
 387 00ea 6846     		mov	r0, sp
 388 00ec FFF7FEFF 		bl	strcmp
 389              	.LVL57:
 390 00f0 70B9     		cbnz	r0, .L31
 108:main.c        ****                                 turn(1, 0, fullsteps/4);
 391              		.loc 1 108 0
 392 00f2 8448     		ldr	r0, .L60+40
 393 00f4 FFF7FEFF 		bl	UART_PutString
 394              	.LVL58:
 109:main.c        ****                             }else if(strcmp(move, "F'") == 0){
 395              		.loc 1 109 0
 396 00f8 7C4B     		ldr	r3, .L60+16
 397 00fa 1A69     		ldr	r2, [r3, #16]
 398 00fc 002A     		cmp	r2, #0
 399 00fe 00DA     		bge	.L32
 400 0100 0332     		adds	r2, r2, #3
 401              	.L32:
 402 0102 9210     		asrs	r2, r2, #2
 403 0104 0021     		movs	r1, #0
 404 0106 0120     		movs	r0, #1
 405 0108 FFF7FEFF 		bl	turn
 406              	.LVL59:
  95:main.c        ****                             
 407              		.loc 1 95 0
 408 010c 0025     		movs	r5, #0
 409 010e 3DE1     		b	.L25
 410              	.L31:
 110:main.c        ****                                 UART_PutString("F'\r\n");
 411              		.loc 1 110 0
 412 0110 7D49     		ldr	r1, .L60+44
 413 0112 6846     		mov	r0, sp
 414 0114 FFF7FEFF 		bl	strcmp
 415              	.LVL60:
 416 0118 70B9     		cbnz	r0, .L33
 111:main.c        ****                                 turn(1, 1, fullsteps/4);
 417              		.loc 1 111 0
 418 011a 7C48     		ldr	r0, .L60+48
 419 011c FFF7FEFF 		bl	UART_PutString
 420              	.LVL61:
 112:main.c        ****                             }else if(strcmp(move, "F2") == 0){
 421              		.loc 1 112 0
 422 0120 724B     		ldr	r3, .L60+16
 423 0122 1A69     		ldr	r2, [r3, #16]
 424 0124 002A     		cmp	r2, #0
 425 0126 00DA     		bge	.L34
 426 0128 0332     		adds	r2, r2, #3
 427              	.L34:
 428 012a 9210     		asrs	r2, r2, #2
 429 012c 0121     		movs	r1, #1
 430 012e 0846     		mov	r0, r1
ARM GAS  C:\Users\JJ\AppData\Local\Temp\cc2QI04s.s 			page 12


 431 0130 FFF7FEFF 		bl	turn
 432              	.LVL62:
  95:main.c        ****                             
 433              		.loc 1 95 0
 434 0134 0025     		movs	r5, #0
 435 0136 29E1     		b	.L25
 436              	.L33:
 113:main.c        ****                                 UART_PutString("F2\r\n");
 437              		.loc 1 113 0
 438 0138 7549     		ldr	r1, .L60+52
 439 013a 6846     		mov	r0, sp
 440 013c FFF7FEFF 		bl	strcmp
 441              	.LVL63:
 442 0140 68B9     		cbnz	r0, .L35
 114:main.c        ****                                 turn(1, 0, fullsteps/2);
 443              		.loc 1 114 0
 444 0142 7448     		ldr	r0, .L60+56
 445 0144 FFF7FEFF 		bl	UART_PutString
 446              	.LVL64:
 115:main.c        ****                             }else if(strcmp(move, "D") == 0){
 447              		.loc 1 115 0
 448 0148 684B     		ldr	r3, .L60+16
 449 014a 1A69     		ldr	r2, [r3, #16]
 450 014c 02EBD272 		add	r2, r2, r2, lsr #31
 451 0150 5210     		asrs	r2, r2, #1
 452 0152 0021     		movs	r1, #0
 453 0154 0120     		movs	r0, #1
 454 0156 FFF7FEFF 		bl	turn
 455              	.LVL65:
  95:main.c        ****                             
 456              		.loc 1 95 0
 457 015a 0025     		movs	r5, #0
 458 015c 16E1     		b	.L25
 459              	.L35:
 116:main.c        ****                                 UART_PutString("D\r\n");
 460              		.loc 1 116 0
 461 015e 6E49     		ldr	r1, .L60+60
 462 0160 6846     		mov	r0, sp
 463 0162 FFF7FEFF 		bl	strcmp
 464              	.LVL66:
 465 0166 70B9     		cbnz	r0, .L36
 117:main.c        ****                                 turn(2, 0, fullsteps/4);
 466              		.loc 1 117 0
 467 0168 6C48     		ldr	r0, .L60+64
 468 016a FFF7FEFF 		bl	UART_PutString
 469              	.LVL67:
 118:main.c        ****                             }else if(strcmp(move, "D'") == 0){
 470              		.loc 1 118 0
 471 016e 5F4B     		ldr	r3, .L60+16
 472 0170 1A69     		ldr	r2, [r3, #16]
 473 0172 002A     		cmp	r2, #0
 474 0174 00DA     		bge	.L37
 475 0176 0332     		adds	r2, r2, #3
 476              	.L37:
 477 0178 9210     		asrs	r2, r2, #2
 478 017a 0021     		movs	r1, #0
 479 017c 0220     		movs	r0, #2
ARM GAS  C:\Users\JJ\AppData\Local\Temp\cc2QI04s.s 			page 13


 480 017e FFF7FEFF 		bl	turn
 481              	.LVL68:
  95:main.c        ****                             
 482              		.loc 1 95 0
 483 0182 0025     		movs	r5, #0
 484 0184 02E1     		b	.L25
 485              	.L36:
 119:main.c        ****                                 UART_PutString("D'\r\n");
 486              		.loc 1 119 0
 487 0186 6649     		ldr	r1, .L60+68
 488 0188 6846     		mov	r0, sp
 489 018a FFF7FEFF 		bl	strcmp
 490              	.LVL69:
 491 018e 70B9     		cbnz	r0, .L38
 120:main.c        ****                                 turn(2, 1, fullsteps/4);
 492              		.loc 1 120 0
 493 0190 6448     		ldr	r0, .L60+72
 494 0192 FFF7FEFF 		bl	UART_PutString
 495              	.LVL70:
 121:main.c        ****                             }else if(strcmp(move, "D2") == 0){
 496              		.loc 1 121 0
 497 0196 554B     		ldr	r3, .L60+16
 498 0198 1A69     		ldr	r2, [r3, #16]
 499 019a 002A     		cmp	r2, #0
 500 019c 00DA     		bge	.L39
 501 019e 0332     		adds	r2, r2, #3
 502              	.L39:
 503 01a0 9210     		asrs	r2, r2, #2
 504 01a2 0121     		movs	r1, #1
 505 01a4 0220     		movs	r0, #2
 506 01a6 FFF7FEFF 		bl	turn
 507              	.LVL71:
  95:main.c        ****                             
 508              		.loc 1 95 0
 509 01aa 0025     		movs	r5, #0
 510 01ac EEE0     		b	.L25
 511              	.L38:
 122:main.c        ****                                 UART_PutString("D2\r\n");
 512              		.loc 1 122 0
 513 01ae 5E49     		ldr	r1, .L60+76
 514 01b0 6846     		mov	r0, sp
 515 01b2 FFF7FEFF 		bl	strcmp
 516              	.LVL72:
 517 01b6 68B9     		cbnz	r0, .L40
 123:main.c        ****                                 turn(2, 0, fullsteps/2);
 518              		.loc 1 123 0
 519 01b8 5C48     		ldr	r0, .L60+80
 520 01ba FFF7FEFF 		bl	UART_PutString
 521              	.LVL73:
 124:main.c        ****                             }else if(strcmp(move, "L") == 0){
 522              		.loc 1 124 0
 523 01be 4B4B     		ldr	r3, .L60+16
 524 01c0 1A69     		ldr	r2, [r3, #16]
 525 01c2 02EBD272 		add	r2, r2, r2, lsr #31
 526 01c6 5210     		asrs	r2, r2, #1
 527 01c8 0021     		movs	r1, #0
 528 01ca 0220     		movs	r0, #2
ARM GAS  C:\Users\JJ\AppData\Local\Temp\cc2QI04s.s 			page 14


 529 01cc FFF7FEFF 		bl	turn
 530              	.LVL74:
  95:main.c        ****                             
 531              		.loc 1 95 0
 532 01d0 0025     		movs	r5, #0
 533 01d2 DBE0     		b	.L25
 534              	.L40:
 125:main.c        ****                                 UART_PutString("L\r\n");
 535              		.loc 1 125 0
 536 01d4 5649     		ldr	r1, .L60+84
 537 01d6 6846     		mov	r0, sp
 538 01d8 FFF7FEFF 		bl	strcmp
 539              	.LVL75:
 540 01dc 70B9     		cbnz	r0, .L41
 126:main.c        ****                                 turn(3, 0, fullsteps/4);
 541              		.loc 1 126 0
 542 01de 5548     		ldr	r0, .L60+88
 543 01e0 FFF7FEFF 		bl	UART_PutString
 544              	.LVL76:
 127:main.c        ****                             }else if(strcmp(move, "L'") == 0){
 545              		.loc 1 127 0
 546 01e4 414B     		ldr	r3, .L60+16
 547 01e6 1A69     		ldr	r2, [r3, #16]
 548 01e8 002A     		cmp	r2, #0
 549 01ea 00DA     		bge	.L42
 550 01ec 0332     		adds	r2, r2, #3
 551              	.L42:
 552 01ee 9210     		asrs	r2, r2, #2
 553 01f0 0021     		movs	r1, #0
 554 01f2 0320     		movs	r0, #3
 555 01f4 FFF7FEFF 		bl	turn
 556              	.LVL77:
  95:main.c        ****                             
 557              		.loc 1 95 0
 558 01f8 0025     		movs	r5, #0
 559 01fa C7E0     		b	.L25
 560              	.L41:
 128:main.c        ****                                 UART_PutString("L'\r\n");
 561              		.loc 1 128 0
 562 01fc 4E49     		ldr	r1, .L60+92
 563 01fe 6846     		mov	r0, sp
 564 0200 FFF7FEFF 		bl	strcmp
 565              	.LVL78:
 566 0204 70B9     		cbnz	r0, .L43
 129:main.c        ****                                 turn(3, 1, fullsteps/4);
 567              		.loc 1 129 0
 568 0206 4D48     		ldr	r0, .L60+96
 569 0208 FFF7FEFF 		bl	UART_PutString
 570              	.LVL79:
 130:main.c        ****                             }else if(strcmp(move, "L2") == 0){
 571              		.loc 1 130 0
 572 020c 374B     		ldr	r3, .L60+16
 573 020e 1A69     		ldr	r2, [r3, #16]
 574 0210 002A     		cmp	r2, #0
 575 0212 00DA     		bge	.L44
 576 0214 0332     		adds	r2, r2, #3
 577              	.L44:
ARM GAS  C:\Users\JJ\AppData\Local\Temp\cc2QI04s.s 			page 15


 578 0216 9210     		asrs	r2, r2, #2
 579 0218 0121     		movs	r1, #1
 580 021a 0320     		movs	r0, #3
 581 021c FFF7FEFF 		bl	turn
 582              	.LVL80:
  95:main.c        ****                             
 583              		.loc 1 95 0
 584 0220 0025     		movs	r5, #0
 585 0222 B3E0     		b	.L25
 586              	.L43:
 131:main.c        ****                                 UART_PutString("L2\r\n");
 587              		.loc 1 131 0
 588 0224 4649     		ldr	r1, .L60+100
 589 0226 6846     		mov	r0, sp
 590 0228 FFF7FEFF 		bl	strcmp
 591              	.LVL81:
 592 022c 68B9     		cbnz	r0, .L45
 132:main.c        ****                                 turn(3, 0, fullsteps/2);
 593              		.loc 1 132 0
 594 022e 4548     		ldr	r0, .L60+104
 595 0230 FFF7FEFF 		bl	UART_PutString
 596              	.LVL82:
 133:main.c        ****                             }else if(strcmp(move, "B") == 0){
 597              		.loc 1 133 0
 598 0234 2D4B     		ldr	r3, .L60+16
 599 0236 1A69     		ldr	r2, [r3, #16]
 600 0238 02EBD272 		add	r2, r2, r2, lsr #31
 601 023c 5210     		asrs	r2, r2, #1
 602 023e 0021     		movs	r1, #0
 603 0240 0320     		movs	r0, #3
 604 0242 FFF7FEFF 		bl	turn
 605              	.LVL83:
  95:main.c        ****                             
 606              		.loc 1 95 0
 607 0246 0025     		movs	r5, #0
 608 0248 A0E0     		b	.L25
 609              	.L45:
 134:main.c        ****                                 UART_PutString("B\r\n");
 610              		.loc 1 134 0
 611 024a 3F49     		ldr	r1, .L60+108
 612 024c 6846     		mov	r0, sp
 613 024e FFF7FEFF 		bl	strcmp
 614              	.LVL84:
 615 0252 70B9     		cbnz	r0, .L46
 135:main.c        ****                                 turn(4, 0, fullsteps/4);
 616              		.loc 1 135 0
 617 0254 3D48     		ldr	r0, .L60+112
 618 0256 FFF7FEFF 		bl	UART_PutString
 619              	.LVL85:
 136:main.c        ****                             }else if(strcmp(move, "B'") == 0){
 620              		.loc 1 136 0
 621 025a 244B     		ldr	r3, .L60+16
 622 025c 1A69     		ldr	r2, [r3, #16]
 623 025e 002A     		cmp	r2, #0
 624 0260 00DA     		bge	.L47
 625 0262 0332     		adds	r2, r2, #3
 626              	.L47:
ARM GAS  C:\Users\JJ\AppData\Local\Temp\cc2QI04s.s 			page 16


 627 0264 9210     		asrs	r2, r2, #2
 628 0266 0021     		movs	r1, #0
 629 0268 0420     		movs	r0, #4
 630 026a FFF7FEFF 		bl	turn
 631              	.LVL86:
  95:main.c        ****                             
 632              		.loc 1 95 0
 633 026e 0025     		movs	r5, #0
 634 0270 8CE0     		b	.L25
 635              	.L46:
 137:main.c        ****                                 UART_PutString("B'\r\n");
 636              		.loc 1 137 0
 637 0272 3749     		ldr	r1, .L60+116
 638 0274 6846     		mov	r0, sp
 639 0276 FFF7FEFF 		bl	strcmp
 640              	.LVL87:
 641 027a 70B9     		cbnz	r0, .L48
 138:main.c        ****                                 turn(4, 1, fullsteps/4);
 642              		.loc 1 138 0
 643 027c 3548     		ldr	r0, .L60+120
 644 027e FFF7FEFF 		bl	UART_PutString
 645              	.LVL88:
 139:main.c        ****                             }else if(strcmp(move, "B2") == 0){
 646              		.loc 1 139 0
 647 0282 1A4B     		ldr	r3, .L60+16
 648 0284 1A69     		ldr	r2, [r3, #16]
 649 0286 002A     		cmp	r2, #0
 650 0288 00DA     		bge	.L49
 651 028a 0332     		adds	r2, r2, #3
 652              	.L49:
 653 028c 9210     		asrs	r2, r2, #2
 654 028e 0121     		movs	r1, #1
 655 0290 0420     		movs	r0, #4
 656 0292 FFF7FEFF 		bl	turn
 657              	.LVL89:
  95:main.c        ****                             
 658              		.loc 1 95 0
 659 0296 0025     		movs	r5, #0
 660 0298 78E0     		b	.L25
 661              	.L48:
 140:main.c        ****                                 UART_PutString("B2\r\n");
 662              		.loc 1 140 0
 663 029a 2F49     		ldr	r1, .L60+124
 664 029c 6846     		mov	r0, sp
 665 029e FFF7FEFF 		bl	strcmp
 666              	.LVL90:
 667 02a2 68B9     		cbnz	r0, .L50
 141:main.c        ****                                 turn(4, 0, fullsteps/2);
 668              		.loc 1 141 0
 669 02a4 2D48     		ldr	r0, .L60+128
 670 02a6 FFF7FEFF 		bl	UART_PutString
 671              	.LVL91:
 142:main.c        ****                             }else if (strcmp(move, "slow") == 0){
 672              		.loc 1 142 0
 673 02aa 104B     		ldr	r3, .L60+16
 674 02ac 1A69     		ldr	r2, [r3, #16]
 675 02ae 02EBD272 		add	r2, r2, r2, lsr #31
ARM GAS  C:\Users\JJ\AppData\Local\Temp\cc2QI04s.s 			page 17


 676 02b2 5210     		asrs	r2, r2, #1
 677 02b4 0021     		movs	r1, #0
 678 02b6 0420     		movs	r0, #4
 679 02b8 FFF7FEFF 		bl	turn
 680              	.LVL92:
  95:main.c        ****                             
 681              		.loc 1 95 0
 682 02bc 0025     		movs	r5, #0
 683 02be 65E0     		b	.L25
 684              	.L50:
 143:main.c        ****                                 UART_PutString("slow\r\n");
 685              		.loc 1 143 0
 686 02c0 2749     		ldr	r1, .L60+132
 687 02c2 6846     		mov	r0, sp
 688 02c4 FFF7FEFF 		bl	strcmp
 689              	.LVL93:
 690 02c8 0028     		cmp	r0, #0
 691 02ca 4DD1     		bne	.L51
 144:main.c        ****                                 speed = 10;
 692              		.loc 1 144 0
 693 02cc 2548     		ldr	r0, .L60+136
 694 02ce FFF7FEFF 		bl	UART_PutString
 695              	.LVL94:
 145:main.c        ****                             }else if (strcmp(move, "fast") == 0){
 696              		.loc 1 145 0
 697 02d2 0A22     		movs	r2, #10
 698 02d4 054B     		ldr	r3, .L60+16
 699 02d6 9A60     		str	r2, [r3, #8]
  95:main.c        ****                             
 700              		.loc 1 95 0
 701 02d8 0025     		movs	r5, #0
 702 02da 57E0     		b	.L25
 703              	.L61:
 704              		.align	2
 705              	.L60:
 706 02dc 00000000 		.word	.LANCHOR1
 707 02e0 00000000 		.word	.LC1
 708 02e4 18000000 		.word	.LC2
 709 02e8 1C000000 		.word	.LC3
 710 02ec 00000000 		.word	.LANCHOR0
 711 02f0 20000000 		.word	.LC4
 712 02f4 24000000 		.word	.LC5
 713 02f8 2C000000 		.word	.LC6
 714 02fc 30000000 		.word	.LC7
 715 0300 38000000 		.word	.LC8
 716 0304 3C000000 		.word	.LC9
 717 0308 40000000 		.word	.LC10
 718 030c 44000000 		.word	.LC11
 719 0310 4C000000 		.word	.LC12
 720 0314 50000000 		.word	.LC13
 721 0318 58000000 		.word	.LC14
 722 031c 5C000000 		.word	.LC15
 723 0320 60000000 		.word	.LC16
 724 0324 64000000 		.word	.LC17
 725 0328 6C000000 		.word	.LC18
 726 032c 70000000 		.word	.LC19
 727 0330 78000000 		.word	.LC20
ARM GAS  C:\Users\JJ\AppData\Local\Temp\cc2QI04s.s 			page 18


 728 0334 7C000000 		.word	.LC21
 729 0338 80000000 		.word	.LC22
 730 033c 84000000 		.word	.LC23
 731 0340 8C000000 		.word	.LC24
 732 0344 90000000 		.word	.LC25
 733 0348 98000000 		.word	.LC26
 734 034c 9C000000 		.word	.LC27
 735 0350 A0000000 		.word	.LC28
 736 0354 A4000000 		.word	.LC29
 737 0358 AC000000 		.word	.LC30
 738 035c B0000000 		.word	.LC31
 739 0360 B8000000 		.word	.LC32
 740 0364 C0000000 		.word	.LC33
 741              	.L51:
 146:main.c        ****                                 UART_PutString("fast\r\n");
 742              		.loc 1 146 0
 743 0368 1249     		ldr	r1, .L62
 744 036a 6846     		mov	r0, sp
 745 036c FFF7FEFF 		bl	strcmp
 746              	.LVL95:
 747 0370 58B9     		cbnz	r0, .L56
 147:main.c        ****                                 speed = 1;
 748              		.loc 1 147 0
 749 0372 1148     		ldr	r0, .L62+4
 750 0374 FFF7FEFF 		bl	UART_PutString
 751              	.LVL96:
 148:main.c        ****                             }
 752              		.loc 1 148 0
 753 0378 0122     		movs	r2, #1
 754 037a 104B     		ldr	r3, .L62+8
 755 037c 9A60     		str	r2, [r3, #8]
  95:main.c        ****                             
 756              		.loc 1 95 0
 757 037e 0025     		movs	r5, #0
 758 0380 04E0     		b	.L25
 759              	.LVL97:
 760              	.L24:
 154:main.c        ****                         moveIndex++;
 761              		.loc 1 154 0
 762 0382 0DF80530 		strb	r3, [sp, r5]
 155:main.c        ****                     }
 763              		.loc 1 155 0
 764 0386 0135     		adds	r5, r5, #1
 765              	.LVL98:
 766 0388 00E0     		b	.L25
 767              	.LVL99:
 768              	.L56:
  95:main.c        ****                             
 769              		.loc 1 95 0
 770 038a 0025     		movs	r5, #0
 771              	.LVL100:
 772              	.L25:
  91:main.c        ****                     if (buffer[i] == ' '){ //there is a space
 773              		.loc 1 91 0 discriminator 2
 774 038c 0134     		adds	r4, r4, #1
 775              	.LVL101:
 776 038e 00E0     		b	.L22
ARM GAS  C:\Users\JJ\AppData\Local\Temp\cc2QI04s.s 			page 19


 777              	.LVL102:
 778              	.L55:
 779              	.LBE3:
 780 0390 0024     		movs	r4, #0
 781              	.LVL103:
 782              	.L22:
 783              	.LBB4:
  91:main.c        ****                     if (buffer[i] == ' '){ //there is a space
 784              		.loc 1 91 0 is_stmt 0 discriminator 1
 785 0392 B442     		cmp	r4, r6
 786 0394 FFF662AE 		blt	.L52
 787              	.LVL104:
 788              	.LBE4:
 159:main.c        ****             }
 789              		.loc 1 159 0 is_stmt 1
 790 0398 0948     		ldr	r0, .L62+12
 791 039a FFF7FEFF 		bl	UART_PutString
 792              	.LVL105:
 158:main.c        ****                 UART_PutString("Finished\r\n");
 793              		.loc 1 158 0
 794 039e 0026     		movs	r6, #0
 795 03a0 52E6     		b	.L21
 796              	.LVL106:
 797              	.L58:
 163:main.c        ****                 index++;
 798              		.loc 1 163 0
 799 03a2 01AB     		add	r3, sp, #4
 800 03a4 9855     		strb	r0, [r3, r6]
 164:main.c        **** 
 801              		.loc 1 164 0
 802 03a6 0136     		adds	r6, r6, #1
 803              	.LVL107:
 804 03a8 B6B2     		uxth	r6, r6
 805              	.LVL108:
 166:main.c        ****                 {
 806              		.loc 1 166 0
 807 03aa B6F5FA7F 		cmp	r6, #500
 808 03ae BFF44AAE 		bcs	.L57
 809 03b2 49E6     		b	.L21
 810              	.L63:
 811              		.align	2
 812              	.L62:
 813 03b4 C8000000 		.word	.LC34
 814 03b8 D0000000 		.word	.LC35
 815 03bc 00000000 		.word	.LANCHOR0
 816 03c0 D8000000 		.word	.LC36
 817              		.cfi_endproc
 818              	.LFE64:
 819              		.size	main, .-main
 820              		.global	speed
 821              		.global	fullsteps
 822              		.global	turn_delay
 823              		.global	delay
 824              		.global	step_delay
 825              		.section	.rodata
 826              		.align	2
 827              		.set	.LANCHOR1,. + 0
ARM GAS  C:\Users\JJ\AppData\Local\Temp\cc2QI04s.s 			page 20


 828              	.LC0:
 829 0000 00       		.ascii	"\000"
 830 0001 0000     		.space	2
 831              		.data
 832              		.align	2
 833              		.set	.LANCHOR0,. + 0
 834              		.type	delay, %object
 835              		.size	delay, 4
 836              	delay:
 837 0000 0A000000 		.word	10
 838              		.type	step_delay, %object
 839              		.size	step_delay, 4
 840              	step_delay:
 841 0004 E8030000 		.word	1000
 842              		.type	speed, %object
 843              		.size	speed, 4
 844              	speed:
 845 0008 01000000 		.word	1
 846              		.type	turn_delay, %object
 847              		.size	turn_delay, 4
 848              	turn_delay:
 849 000c 06000000 		.word	6
 850              		.type	fullsteps, %object
 851              		.size	fullsteps, 4
 852              	fullsteps:
 853 0010 C8000000 		.word	200
 854              		.section	.rodata.str1.4,"aMS",%progbits,1
 855              		.align	2
 856              	.LC1:
 857 0000 526F626F 		.ascii	"Robot Initialised \015\012\000"
 857      7420496E 
 857      69746961 
 857      6C697365 
 857      64200D0A 
 858 0015 000000   		.space	3
 859              	.LC2:
 860 0018 5200     		.ascii	"R\000"
 861 001a 0000     		.space	2
 862              	.LC3:
 863 001c 520D0A00 		.ascii	"R\015\012\000"
 864              	.LC4:
 865 0020 522700   		.ascii	"R'\000"
 866 0023 00       		.space	1
 867              	.LC5:
 868 0024 52270D0A 		.ascii	"R'\015\012\000"
 868      00
 869 0029 000000   		.space	3
 870              	.LC6:
 871 002c 523200   		.ascii	"R2\000"
 872 002f 00       		.space	1
 873              	.LC7:
 874 0030 52320D0A 		.ascii	"R2\015\012\000"
 874      00
 875 0035 000000   		.space	3
 876              	.LC8:
 877 0038 4600     		.ascii	"F\000"
 878 003a 0000     		.space	2
ARM GAS  C:\Users\JJ\AppData\Local\Temp\cc2QI04s.s 			page 21


 879              	.LC9:
 880 003c 460D0A00 		.ascii	"F\015\012\000"
 881              	.LC10:
 882 0040 462700   		.ascii	"F'\000"
 883 0043 00       		.space	1
 884              	.LC11:
 885 0044 46270D0A 		.ascii	"F'\015\012\000"
 885      00
 886 0049 000000   		.space	3
 887              	.LC12:
 888 004c 463200   		.ascii	"F2\000"
 889 004f 00       		.space	1
 890              	.LC13:
 891 0050 46320D0A 		.ascii	"F2\015\012\000"
 891      00
 892 0055 000000   		.space	3
 893              	.LC14:
 894 0058 4400     		.ascii	"D\000"
 895 005a 0000     		.space	2
 896              	.LC15:
 897 005c 440D0A00 		.ascii	"D\015\012\000"
 898              	.LC16:
 899 0060 442700   		.ascii	"D'\000"
 900 0063 00       		.space	1
 901              	.LC17:
 902 0064 44270D0A 		.ascii	"D'\015\012\000"
 902      00
 903 0069 000000   		.space	3
 904              	.LC18:
 905 006c 443200   		.ascii	"D2\000"
 906 006f 00       		.space	1
 907              	.LC19:
 908 0070 44320D0A 		.ascii	"D2\015\012\000"
 908      00
 909 0075 000000   		.space	3
 910              	.LC20:
 911 0078 4C00     		.ascii	"L\000"
 912 007a 0000     		.space	2
 913              	.LC21:
 914 007c 4C0D0A00 		.ascii	"L\015\012\000"
 915              	.LC22:
 916 0080 4C2700   		.ascii	"L'\000"
 917 0083 00       		.space	1
 918              	.LC23:
 919 0084 4C270D0A 		.ascii	"L'\015\012\000"
 919      00
 920 0089 000000   		.space	3
 921              	.LC24:
 922 008c 4C3200   		.ascii	"L2\000"
 923 008f 00       		.space	1
 924              	.LC25:
 925 0090 4C320D0A 		.ascii	"L2\015\012\000"
 925      00
 926 0095 000000   		.space	3
 927              	.LC26:
 928 0098 4200     		.ascii	"B\000"
 929 009a 0000     		.space	2
ARM GAS  C:\Users\JJ\AppData\Local\Temp\cc2QI04s.s 			page 22


 930              	.LC27:
 931 009c 420D0A00 		.ascii	"B\015\012\000"
 932              	.LC28:
 933 00a0 422700   		.ascii	"B'\000"
 934 00a3 00       		.space	1
 935              	.LC29:
 936 00a4 42270D0A 		.ascii	"B'\015\012\000"
 936      00
 937 00a9 000000   		.space	3
 938              	.LC30:
 939 00ac 423200   		.ascii	"B2\000"
 940 00af 00       		.space	1
 941              	.LC31:
 942 00b0 42320D0A 		.ascii	"B2\015\012\000"
 942      00
 943 00b5 000000   		.space	3
 944              	.LC32:
 945 00b8 736C6F77 		.ascii	"slow\000"
 945      00
 946 00bd 000000   		.space	3
 947              	.LC33:
 948 00c0 736C6F77 		.ascii	"slow\015\012\000"
 948      0D0A00
 949 00c7 00       		.space	1
 950              	.LC34:
 951 00c8 66617374 		.ascii	"fast\000"
 951      00
 952 00cd 000000   		.space	3
 953              	.LC35:
 954 00d0 66617374 		.ascii	"fast\015\012\000"
 954      0D0A00
 955 00d7 00       		.space	1
 956              	.LC36:
 957 00d8 46696E69 		.ascii	"Finished\015\012\000"
 957      73686564 
 957      0D0A00
 958              		.text
 959              	.Letext0:
 960              		.file 2 "c:\\program files (x86)\\cypress\\psoc creator\\4.4\\psoc creator\\import\\gnu\\arm\\5.4.
 961              		.file 3 "c:\\program files (x86)\\cypress\\psoc creator\\4.4\\psoc creator\\import\\gnu\\arm\\5.4.
 962              		.file 4 "Generated_Source\\PSoC5/core_cm3.h"
 963              		.file 5 "Generated_Source\\PSoC5/Step.h"
 964              		.file 6 "Generated_Source\\PSoC5/CyLib.h"
 965              		.file 7 "Generated_Source\\PSoC5/Enable_1.h"
 966              		.file 8 "Generated_Source\\PSoC5/Enable_2.h"
 967              		.file 9 "Generated_Source\\PSoC5/Enable_3.h"
 968              		.file 10 "Generated_Source\\PSoC5/Enable_4.h"
 969              		.file 11 "Generated_Source\\PSoC5/Enable_5.h"
 970              		.file 12 "Generated_Source\\PSoC5/Direction.h"
 971              		.file 13 "c:\\program files (x86)\\cypress\\psoc creator\\4.4\\psoc creator\\import\\gnu\\arm\\5.4
 972              		.file 14 "Generated_Source\\PSoC5/UART.h"